target datalayout = "e-m:e-p270:32:32-p271:32:32-p272:64:64-i64:64-i128:128-f80:128-n8:16:32:64-S128"
target triple = "x86_64-pc-linux-gnu"

@.str.33 = private unnamed_addr constant [22 x i8] c"../openssl/apps/kdf.c\00", align 1
@.str.41 = private unnamed_addr constant [15 x i8] c"algorithm name\00", align 1
@.str.42 = private unnamed_addr constant [6 x i8] c"%s:%s\00", align 1

; Function Attrs: inlinehint nounwind uwtable
define internal ptr @ossl_check_OPENSSL_STRING_type(ptr noundef %0) #4 {
  %2 = alloca ptr, align 8
  store ptr %0, ptr %2, align 8, !tbaa !13
  %3 = load ptr, ptr %2, align 8, !tbaa !13
  ret ptr %3
}

; Function Attrs: inlinehint nounwind uwtable
define internal ptr @ossl_check_OPENSSL_STRING_sk_type(ptr noundef %0) #4 {
  %2 = alloca ptr, align 8
  store ptr %0, ptr %2, align 8, !tbaa !11
  %3 = load ptr, ptr %2, align 8, !tbaa !11
  ret ptr %3
}

; Function Attrs: nounwind uwtable
define internal ptr @alloc_kdf_algorithm_name(ptr noundef %0, ptr noundef %1, ptr noundef %2) #0 {
  %4 = alloca ptr, align 8
  %5 = alloca ptr, align 8
  %6 = alloca ptr, align 8
  %7 = alloca ptr, align 8
  %8 = alloca i64, align 8
  %9 = alloca ptr, align 8
  %10 = alloca i32, align 4
  store ptr %0, ptr %5, align 8, !tbaa !27
  store ptr %1, ptr %6, align 8, !tbaa !13
  store ptr %2, ptr %7, align 8, !tbaa !13
  call void @llvm.lifetime.start.p0(i64 8, ptr %8) #7
  %11 = load ptr, ptr %6, align 8, !tbaa !13
  %12 = call i64 @strlen(ptr noundef %11) #8
  %13 = load ptr, ptr %7, align 8, !tbaa !13
  %14 = call i64 @strlen(ptr noundef %13) #8
  %15 = add i64 %12, %14
  %16 = add i64 %15, 2
  store i64 %16, ptr %8, align 8, !tbaa !15
  call void @llvm.lifetime.start.p0(i64 8, ptr %9) #7
  %17 = load ptr, ptr %5, align 8, !tbaa !27
  %18 = load ptr, ptr %17, align 8, !tbaa !11
  %19 = icmp eq ptr %18, null
  br i1 %19, label %20, label %23

20:                                               ; preds = %3
  %21 = call ptr @OPENSSL_sk_new_null()
  %22 = load ptr, ptr %5, align 8, !tbaa !27
  store ptr %21, ptr %22, align 8, !tbaa !11
  br label %23

23:                                               ; preds = %20, %3
  %24 = load ptr, ptr %5, align 8, !tbaa !27
  %25 = load ptr, ptr %24, align 8, !tbaa !11
  %26 = icmp eq ptr %25, null
  br i1 %26, label %27, label %28

27:                                               ; preds = %23
  store ptr null, ptr %4, align 8
  store i32 1, ptr %10, align 4
  br label %47

28:                                               ; preds = %23
  %29 = load i64, ptr %8, align 8, !tbaa !15
  %30 = call ptr @app_malloc(i64 noundef %29, ptr noundef @.str.41)
  store ptr %30, ptr %9, align 8, !tbaa !13
  %31 = load ptr, ptr %9, align 8, !tbaa !13
  %32 = load i64, ptr %8, align 8, !tbaa !15
  %33 = load ptr, ptr %6, align 8, !tbaa !13
  %34 = load ptr, ptr %7, align 8, !tbaa !13
  %35 = call i32 (ptr, i64, ptr, ...) @BIO_snprintf(ptr noundef %31, i64 noundef %32, ptr noundef @.str.42, ptr noundef %33, ptr noundef %34)
  %36 = load ptr, ptr %5, align 8, !tbaa !27
  %37 = load ptr, ptr %36, align 8, !tbaa !11
  %38 = call ptr @ossl_check_OPENSSL_STRING_sk_type(ptr noundef %37)
  %39 = load ptr, ptr %9, align 8, !tbaa !13
  %40 = call ptr @ossl_check_OPENSSL_STRING_type(ptr noundef %39)
  %41 = call i32 @OPENSSL_sk_push(ptr noundef %38, ptr noundef %40)
  %42 = icmp ne i32 %41, 0
  br i1 %42, label %43, label %45

43:                                               ; preds = %28
  %44 = load ptr, ptr %9, align 8, !tbaa !13
  store ptr %44, ptr %4, align 8
  store i32 1, ptr %10, align 4
  br label %47

45:                                               ; preds = %28
  %46 = load ptr, ptr %9, align 8, !tbaa !13
  call void @CRYPTO_free(ptr noundef %46, ptr noundef @.str.33, i32 noundef 66)
  store ptr null, ptr %4, align 8
  store i32 1, ptr %10, align 4
  br label %47

47:                                               ; preds = %45, %43, %27
  call void @llvm.lifetime.end.p0(i64 8, ptr %9) #7
  call void @llvm.lifetime.end.p0(i64 8, ptr %8) #7
  %48 = load ptr, ptr %4, align 8
  ret ptr %48
}