; Function Attrs: nounwind uwtable
define internal fastcc noundef ptr @alloc_kdf_algorithm_name(ptr noundef nonnull captures(none) %0, ptr noundef %1, ptr noundef %2) unnamed_addr #0 {
  %4 = tail call i64 @strlen(ptr noundef nonnull dereferenceable(1) %1) #6
  %5 = tail call i64 @strlen(ptr noundef nonnull dereferenceable(1) %2) #6
  %6 = add i64 %4, 2
  %7 = add i64 %6, %5
  %8 = load ptr, ptr %0, align 8, !tbaa !4
  %9 = icmp eq ptr %8, null
  br i1 %9, label %10, label %.thread

10:                                               ; preds = %3
  %11 = tail call ptr @OPENSSL_sk_new_null() #5
  store ptr %11, ptr %0, align 8, !tbaa !4
  %12 = icmp eq ptr %11, null
  br i1 %12, label %18, label %.thread

.thread:                                          ; preds = %3, %10
  %13 = tail call ptr @app_malloc(i64 noundef %7, ptr noundef nonnull @.str.41) #5
  %14 = tail call i32 (ptr, i64, ptr, ...) @BIO_snprintf(ptr noundef %13, i64 noundef %7, ptr noundef nonnull @.str.42, ptr noundef nonnull %1, ptr noundef nonnull %2) #5
  %15 = load ptr, ptr %0, align 8, !tbaa !4
  %16 = tail call i32 @OPENSSL_sk_push(ptr noundef %15, ptr noundef %13) #5
  %.not = icmp eq i32 %16, 0
  br i1 %.not, label %17, label %18

17:                                               ; preds = %.thread
  tail call void @CRYPTO_free(ptr noundef %13, ptr noundef nonnull @.str.33, i32 noundef 66) #5
  br label %18

18:                                               ; preds = %.thread, %10, %17
  %.0 = phi ptr [ null, %17 ], [ null, %10 ], [ %13, %.thread ]
  ret ptr %.0
}